target datalayout = "e-m:e-p270:32:32-p271:32:32-p272:64:64-i64:64-i128:128-f80:128-n8:16:32:64-S128"
target triple = "x86_64-pc-linux-gnu"

%"class.folly::AsyncTimeout" = type { ptr, %"class.folly::EventBaseEvent", ptr, %"class.std::shared_ptr" }
%"class.folly::EventBaseEvent" = type { %struct.event, ptr, ptr, ptr, %"struct.folly::EventCallback" }
%struct.event = type { %struct.event_callback, %union.anon.0, i32, ptr, %union.anon.2, i16, i16, %struct.timeval }
%struct.event_callback = type { %struct.anon, i16, i8, i8, %union.anon, ptr }
%struct.anon = type { ptr, ptr }
%union.anon = type { ptr }
%union.anon.0 = type { %struct.anon.1 }
%struct.anon.1 = type { ptr, ptr }
%union.anon.2 = type { %struct.anon.3 }
%struct.anon.3 = type { %struct.anon.4, %struct.timeval }
%struct.anon.4 = type { ptr, ptr }
%struct.timeval = type { i64, i64 }
%"struct.folly::EventCallback" = type { i32, %union.anon.7 }
%union.anon.7 = type { ptr }
%"class.std::shared_ptr" = type { %"class.std::__shared_ptr" }
%"class.std::__shared_ptr" = type { ptr, %"class.std::__shared_count" }
%"class.std::__shared_count" = type { ptr }
%"class.std::reference_wrapper" = type { ptr }
%"class.google::LogMessageFatal" = type { %"class.google::LogMessage" }
%"class.google::LogMessage" = type { ptr, ptr }

@.str = private unnamed_addr constant [121 x i8] c"generated/home/dtcxzyw/WorkSpace/Projects/compilers/llvm-opt-benchmark/bench/folly/folly/folly/io/async/AsyncTimeout.cpp\00", align 1
@.str.1 = private unnamed_addr constant [56 x i8] c"detachEventBase() called on scheduled timeout; aborting\00", align 1

; Function Attrs: mustprogress nounwind uwtable
define linkonce_odr noundef ptr @_ZNSt17reference_wrapperIKsE6_S_funERS0_(ptr noundef nonnull align 2 dereferenceable(2) %0) #0 comdat align 2 {
  %2 = alloca ptr, align 8
  store ptr %0, ptr %2, align 8, !tbaa !85
  %3 = load ptr, ptr %2, align 8, !tbaa !85
  ret ptr %3
}

; Function Attrs: mustprogress nounwind uwtable
define linkonce_odr void @_ZNSt17reference_wrapperIKsEC2IRS0_vPS0_EEOT_(ptr noundef nonnull align 8 dereferenceable(8) %0, ptr noundef nonnull align 2 dereferenceable(2) %1) unnamed_addr #0 comdat align 2 {
  %3 = alloca ptr, align 8
  %4 = alloca ptr, align 8
  store ptr %0, ptr %3, align 8, !tbaa !83
  store ptr %1, ptr %4, align 8, !tbaa !85
  %5 = load ptr, ptr %3, align 8
  %6 = getelementptr inbounds nuw %"class.std::reference_wrapper", ptr %5, i32 0, i32 0
  %7 = load ptr, ptr %4, align 8, !tbaa !85
  %8 = call noundef ptr @_ZNSt17reference_wrapperIKsE6_S_funERS0_(ptr noundef nonnull align 2 dereferenceable(2) %7) #16
  store ptr %8, ptr %6, align 8, !tbaa !87
  ret void
}

; Function Attrs: mustprogress nounwind uwtable
define linkonce_odr noundef nonnull align 2 dereferenceable(2) ptr @_ZNKSt17reference_wrapperIKsE3getEv(ptr noundef nonnull align 8 dereferenceable(8) %0) #0 comdat align 2 {
  %2 = alloca ptr, align 8
  store ptr %0, ptr %2, align 8, !tbaa !83
  %3 = load ptr, ptr %2, align 8
  %4 = getelementptr inbounds nuw %"class.std::reference_wrapper", ptr %3, i32 0, i32 0
  %5 = load ptr, ptr %4, align 8, !tbaa !87
  ret ptr %5
}

; Function Attrs: inlinehint mustprogress nounwind uwtable
define linkonce_odr ptr @_ZSt4crefIsESt17reference_wrapperIKT_ERS2_(ptr noundef nonnull align 2 dereferenceable(2) %0) #3 comdat {
  %2 = alloca %"class.std::reference_wrapper", align 8
  %3 = alloca ptr, align 8
  store ptr %0, ptr %3, align 8, !tbaa !85
  %4 = load ptr, ptr %3, align 8, !tbaa !85
  call void @_ZNSt17reference_wrapperIKsEC2IRS0_vPS0_EEOT_(ptr noundef nonnull align 8 dereferenceable(8) %2, ptr noundef nonnull align 2 dereferenceable(2) %4) #16
  %5 = getelementptr inbounds nuw %"class.std::reference_wrapper", ptr %2, i32 0, i32 0
  %6 = load ptr, ptr %5, align 8
  ret ptr %6
}

; Function Attrs: mustprogress nounwind uwtable
define linkonce_odr noundef nonnull align 2 dereferenceable(2) ptr @_ZNKSt17reference_wrapperIKsEcvRS0_Ev(ptr noundef nonnull align 8 dereferenceable(8) %0) #0 comdat align 2 {
  %2 = alloca ptr, align 8
  store ptr %0, ptr %2, align 8, !tbaa !83
  %3 = load ptr, ptr %2, align 8
  %4 = call noundef nonnull align 2 dereferenceable(2) ptr @_ZNKSt17reference_wrapperIKsE3getEv(ptr noundef nonnull align 8 dereferenceable(8) %3) #16
  ret ptr %4
}

; Function Attrs: inlinehint mustprogress nounwind uwtable
define linkonce_odr ptr @_ZN5folly15event_ref_flagsEPK5event(ptr noundef %0) #3 comdat {
  %2 = alloca %"class.std::reference_wrapper", align 8
  %3 = alloca ptr, align 8
  store ptr %0, ptr %3, align 8, !tbaa !81
  %4 = load ptr, ptr %3, align 8, !tbaa !81
  %5 = getelementptr inbounds nuw %struct.event, ptr %4, i32 0, i32 0
  %6 = getelementptr inbounds nuw %struct.event_callback, ptr %5, i32 0, i32 1
  %7 = call ptr @_ZSt4crefIsESt17reference_wrapperIKT_ERS2_(ptr noundef nonnull align 2 dereferenceable(2) %6) #16
  %8 = getelementptr inbounds nuw %"class.std::reference_wrapper", ptr %2, i32 0, i32 0
  store ptr %7, ptr %8, align 8
  %9 = getelementptr inbounds nuw %"class.std::reference_wrapper", ptr %2, i32 0, i32 0
  %10 = load ptr, ptr %9, align 8
  ret ptr %10
}

; Function Attrs: mustprogress uwtable
define linkonce_odr noundef zeroext i1 @_ZN5folly9EventUtil17isEventRegisteredEPK5event(ptr noundef %0) #1 comdat align 2 {
  %2 = alloca ptr, align 8
  %3 = alloca %"class.std::reference_wrapper", align 8
  store ptr %0, ptr %2, align 8, !tbaa !81
  call void @llvm.lifetime.start.p0(i64 8, ptr %3) #16
  %4 = load ptr, ptr %2, align 8, !tbaa !81
  %5 = call ptr @_ZN5folly15event_ref_flagsEPK5event(ptr noundef %4)
  %6 = getelementptr inbounds nuw %"class.std::reference_wrapper", ptr %3, i32 0, i32 0
  store ptr %5, ptr %6, align 8
  %7 = call noundef nonnull align 2 dereferenceable(2) ptr @_ZNKSt17reference_wrapperIKsEcvRS0_Ev(ptr noundef nonnull align 8 dereferenceable(8) %3) #16
  %8 = load i16, ptr %7, align 2, !tbaa !47
  %9 = sext i16 %8 to i32
  %10 = and i32 %9, 15
  %11 = icmp ne i32 %10, 0
  call void @llvm.lifetime.end.p0(i64 8, ptr %3) #16
  ret i1 %11
}

; Function Attrs: mustprogress uwtable
define linkonce_odr noundef zeroext i1 @_ZNK5folly14EventBaseEvent17isEventRegisteredEv(ptr noundef nonnull align 8 dereferenceable(168) %0) #1 comdat align 2 {
  %2 = alloca ptr, align 8
  store ptr %0, ptr %2, align 8, !tbaa !39
  %3 = load ptr, ptr %2, align 8
  %4 = getelementptr inbounds nuw %"class.folly::EventBaseEvent", ptr %3, i32 0, i32 0
  %5 = call noundef zeroext i1 @_ZN5folly9EventUtil17isEventRegisteredEPK5event(ptr noundef %4)
  ret i1 %5
}

; Function Attrs: mustprogress uwtable
define noundef zeroext i1 @_ZNK5folly12AsyncTimeout11isScheduledEv(ptr noundef nonnull align 8 dereferenceable(200) %0) #1 align 2 {
  %2 = alloca ptr, align 8
  store ptr %0, ptr %2, align 8, !tbaa !7
  %3 = load ptr, ptr %2, align 8
  %4 = getelementptr inbounds nuw %"class.folly::AsyncTimeout", ptr %3, i32 0, i32 1
  %5 = call noundef zeroext i1 @_ZNK5folly14EventBaseEvent17isEventRegisteredEv(ptr noundef nonnull align 8 dereferenceable(168) %4)
  ret i1 %5
}

; Function Attrs: mustprogress uwtable
define void @_ZN5folly12AsyncTimeout20detachTimeoutManagerEv(ptr noundef nonnull align 8 dereferenceable(200) %0) #1 align 2 personality ptr @__gxx_personality_v0 {
  %2 = alloca ptr, align 8
  %3 = alloca %"class.google::LogMessageFatal", align 8
  %4 = alloca ptr, align 8
  %5 = alloca i32, align 4
  store ptr %0, ptr %2, align 8, !tbaa !7
  %6 = load ptr, ptr %2, align 8
  %7 = call noundef zeroext i1 @_ZNK5folly12AsyncTimeout11isScheduledEv(ptr noundef nonnull align 8 dereferenceable(200) %6)
  br i1 %7, label %8, label %18

8:                                                ; preds = %1
  call void @llvm.lifetime.start.p0(i64 16, ptr %3) #16
  call void @_ZN6google15LogMessageFatalC1EPKci(ptr noundef nonnull align 8 dereferenceable(16) %3, ptr noundef @.str, i32 noundef 112)
  %9 = invoke noundef nonnull align 8 dereferenceable(8) ptr @_ZN6google10LogMessage6streamEv(ptr noundef nonnull align 8 dereferenceable(16) %3)
          to label %10 unwind label %13

10:                                               ; preds = %8
  %11 = invoke noundef nonnull align 8 dereferenceable(8) ptr @_ZStlsISt11char_traitsIcEERSt13basic_ostreamIcT_ES5_PKc(ptr noundef nonnull align 8 dereferenceable(8) %9, ptr noundef @.str.1)
          to label %12 unwind label %13

12:                                               ; preds = %10
  call void @_ZN6google15LogMessageFatalD1Ev(ptr noundef nonnull align 8 dereferenceable(16) %3) #15
  unreachable

13:                                               ; preds = %10, %8
  %14 = landingpad { ptr, i32 }
          cleanup
  %15 = extractvalue { ptr, i32 } %14, 0
  store ptr %15, ptr %4, align 8
  %16 = extractvalue { ptr, i32 } %14, 1
  store i32 %16, ptr %5, align 4
  call void @_ZN6google15LogMessageFatalD1Ev(ptr noundef nonnull align 8 dereferenceable(16) %3) #15
  unreachable

17:                                               ; No predecessors!
  call void @llvm.lifetime.end.p0(i64 16, ptr %3) #16
  br label %30

18:                                               ; preds = %1
  %19 = getelementptr inbounds nuw %"class.folly::AsyncTimeout", ptr %6, i32 0, i32 2
  %20 = load ptr, ptr %19, align 8, !tbaa !18
  %21 = icmp ne ptr %20, null
  br i1 %21, label %22, label %29

22:                                               ; preds = %18
  %23 = getelementptr inbounds nuw %"class.folly::AsyncTimeout", ptr %6, i32 0, i32 2
  %24 = load ptr, ptr %23, align 8, !tbaa !18
  %25 = load ptr, ptr %24, align 8, !tbaa !16
  %26 = getelementptr inbounds ptr, ptr %25, i64 3
  %27 = load ptr, ptr %26, align 8
  call void %27(ptr noundef nonnull align 8 dereferenceable(16) %24, ptr noundef %6)
  %28 = getelementptr inbounds nuw %"class.folly::AsyncTimeout", ptr %6, i32 0, i32 2
  store ptr null, ptr %28, align 8, !tbaa !18
  br label %29

29:                                               ; preds = %22, %18
  ret void

30:                                               ; preds = %17
  %31 = load ptr, ptr %4, align 8
  %32 = load i32, ptr %5, align 4
  %33 = insertvalue { ptr, i32 } poison, ptr %31, 0
  %34 = insertvalue { ptr, i32 } %33, i32 %32, 1
  resume { ptr, i32 } %34
}